ccollections
defaultdict
p1
(c__builtin__
list
p2
tRp3
I0
(dp4
S'objective'
p5
F0.89121600500156295
sS'positive'
p6
F0.075648640200062525
sS'neutral'
p7
F0.0031259768677711786
sS'negative'
p8
F0.030009377930603313
sS'occurences'
p9
I3199
ssI1
(dp10
S'objective'
p11
F0.65042979942693413
sS'positive'
p12
F0.23782234957020057
sS'neutral'
p13
F0.0028653295128939827
sS'negative'
p14
F0.10888252148997135
sg9
I349
ssI2
(dp15
S'objective'
p16
F0.66773162939297126
sS'positive'
p17
F0.22364217252396165
sS'neutral'
p18
F0.0031948881789137379
sS'negative'
p19
F0.10543130990415335
sg9
I313
ssI3
(dp20
S'objective'
p21
F0.77992277992277992
sS'positive'
p22
F0.11583011583011583
sS'neutral'
p23
F0.011583011583011582
sS'negative'
p24
F0.092664092664092659
sg9
I259
ssI4
(dp25
S'objective'
p26
F0.84403669724770647
sS'positive'
p27
F0.11926605504587157
sS'negative'
p28
F0.03669724770642202
sg9
I218
ssI5
(dp29
S'objective'
p30
F0.8797814207650273
sS'positive'
p31
F0.071038251366120214
sS'neutral'
p32
F0.0054644808743169399
sS'negative'
p33
F0.043715846994535519
sg9
I183
ssI6
(dp34
S'objective'
p35
F0.94964028776978415
sS'positive'
p36
F0.035971223021582732
sS'negative'
p37
F0.014388489208633094
sg9
I139
ssI7
(dp38
S'objective'
p39
F0.97101449275362317
sS'positive'
p40
F0.021739130434782608
sS'neutral'
p41
F0.007246376811594203
sg9
I138
ssI8
(dp42
S'objective'
p43
F0.97999999999999998
sS'positive'
p44
F0.0066666666666666671
sS'neutral'
p45
F0.0066666666666666671
sS'negative'
p46
F0.0066666666666666671
sg9
I150
ssI9
(dp47
S'objective'
p48
F0.98148148148148151
sS'positive'
p49
F0.0092592592592592587
sS'negative'
p50
F0.0092592592592592587
sg9
I108
ssI10
(dp51
S'objective'
p52
F0.98936170212765961
sS'positive'
p53
F0.010638297872340425
sg9
I94
ssI11
(dp54
S'objective'
p55
F0.98999999999999999
sS'negative'
p56
F0.01
sg9
I100
ssI12
(dp57
S'objective'
p58
F1
sg9
I105
ssI13
(dp59
S'objective'
p60
F1
sg9
I98
ssI14
(dp61
S'objective'
p62
F1
sg9
I59
ssI15
(dp63
S'objective'
p64
F1
sg9
I85
ssI16
(dp65
S'objective'
p66
F1
sg9
I58
ssI17
(dp67
S'objective'
p68
F1
sg9
I75
ssI18
(dp69
S'objective'
p70
F1
sg9
I65
ssI19
(dp71
S'objective'
p72
F1
sg9
I41
ssI20
(dp73
S'objective'
p74
F1
sg9
I42
ssI21
(dp75
S'objective'
p76
F1
sg9
I38
ssI22
(dp77
S'objective'
p78
F1
sg9
I28
ssI23
(dp79
S'objective'
p80
F1
sg9
I18
ssI24
(dp81
S'objective'
p82
F1
sg9
I8
ssI25
(dp83
S'objective'
p84
F1
sg9
I3
ssI26
(dp85
S'objective'
p86
F1
sg9
I3
ssI27
(dp87
S'objective'
p88
F1
sg9
I3
ssI28
(dp89
S'objective'
p90
F1
sg9
I2
ssI29
(dp91
S'objective'
p92
F1
sg9
I1
ss.